target datalayout = "e-m:e-p270:32:32-p271:32:32-p272:64:64-i64:64-i128:128-f80:128-n8:16:32:64-S128"
target triple = "x86_64-pc-linux-gnu"

%"class.QMetaObject::Connection" = type { ptr }
%class.MLRenderingToolbar = type { %class.QToolBar, %class.QList, i32, ptr, %class.QMap, %class.QMap.1, ptr }
%class.QToolBar = type { %class.QWidget }
%class.QWidget = type { %class.QObject, %class.QPaintDevice, ptr }
%class.QObject = type { ptr, %class.QScopedPointer }
%class.QScopedPointer = type { ptr }
%class.QPaintDevice = type { ptr, i16, ptr }
%class.QList = type { %union.anon }
%union.anon = type { %struct.QListData }
%struct.QListData = type { ptr }
%class.QMap = type { ptr }
%class.QMap.1 = type { ptr }
%class.QWidgetData = type { i64, i32, %class.QFlags, i32, %class.QRect, [4 x i8], %class.QPalette, %class.QFont, %class.QRect }
%class.QFlags = type { i32 }
%class.QPalette = type <{ ptr, %union.anon.7, [4 x i8] }>
%union.anon.7 = type { %"struct.QPalette::Data" }
%"struct.QPalette::Data" = type { i32 }
%class.QFont = type <{ %class.QExplicitlySharedDataPointer, i32, [4 x i8] }>
%class.QExplicitlySharedDataPointer = type { ptr }
%class.QRect = type { i32, i32, i32, i32 }

@.str.5 = private unnamed_addr constant [48 x i8] c"2userDefinedColorAction(int,MLRenderingAction*)\00", align 1
@.str.6 = private unnamed_addr constant [45 x i8] c"1extraUpdateRequired(int,MLRenderingAction*)\00", align 1
@_ZN22MLRenderingColorPickerC1EiP40MLRenderingUserDefinedGeneralColorActionP7QWidget = unnamed_addr alias void (ptr, i32, ptr, ptr), ptr @_ZN22MLRenderingColorPickerC2EiP40MLRenderingUserDefinedGeneralColorActionP7QWidget

; Function Attrs: mustprogress nounwind uwtable
define linkonce_odr noundef i32 @_ZNK5QRect6heightEv(ptr noundef nonnull align 4 dereferenceable(16) %0) #4 comdat align 2 {
  %2 = alloca ptr, align 8
  store ptr %0, ptr %2, align 8
  %3 = load ptr, ptr %2, align 8
  %4 = getelementptr inbounds %class.QRect, ptr %3, i32 0, i32 3
  %5 = load i32, ptr %4, align 4
  %6 = getelementptr inbounds %class.QRect, ptr %3, i32 0, i32 1
  %7 = load i32, ptr %6, align 4
  %8 = sub nsw i32 %5, %7
  %9 = add nsw i32 %8, 1
  ret i32 %9
}

; Function Attrs: mustprogress nounwind uwtable
define linkonce_odr noundef i32 @_ZNK7QWidget6heightEv(ptr noundef nonnull align 8 dereferenceable(48) %0) #4 comdat align 2 {
  %2 = alloca ptr, align 8
  store ptr %0, ptr %2, align 8
  %3 = load ptr, ptr %2, align 8
  %4 = getelementptr inbounds %class.QWidget, ptr %3, i32 0, i32 2
  %5 = load ptr, ptr %4, align 8
  %6 = getelementptr inbounds %class.QWidgetData, ptr %5, i32 0, i32 4
  %7 = call noundef i32 @_ZNK5QRect6heightEv(ptr noundef nonnull align 4 dereferenceable(16) %6) #3
  ret i32 %7
}

; Function Attrs: mustprogress uwtable
define void @_ZN18MLRenderingToolbar14addColorPickerEP40MLRenderingUserDefinedGeneralColorAction(ptr noundef nonnull align 8 dereferenceable(96) %0, ptr noundef %1) #5 align 2 personality ptr @__gxx_personality_v0 {
  %3 = alloca ptr, align 8
  %4 = alloca ptr, align 8
  %5 = alloca ptr, align 8
  %6 = alloca ptr, align 8
  %7 = alloca i32, align 4
  %8 = alloca %"class.QMetaObject::Connection", align 8
  store ptr %0, ptr %3, align 8
  store ptr %1, ptr %4, align 8
  %9 = load ptr, ptr %3, align 8
  %10 = load ptr, ptr %4, align 8
  %11 = icmp eq ptr %10, null
  br i1 %11, label %12, label %13

12:                                               ; preds = %2
  br label %30

13:                                               ; preds = %2
  %14 = call noalias noundef nonnull ptr @_Znwm(i64 noundef 56) #15
  %15 = getelementptr inbounds %class.MLRenderingToolbar, ptr %9, i32 0, i32 2
  %16 = load i32, ptr %15, align 8
  %17 = load ptr, ptr %4, align 8
  invoke void @_ZN22MLRenderingColorPickerC1EiP40MLRenderingUserDefinedGeneralColorActionP7QWidget(ptr noundef nonnull align 8 dereferenceable(56) %14, i32 noundef %16, ptr noundef %17, ptr noundef %9)
          to label %18 unwind label %31

18:                                               ; preds = %13
  store ptr %14, ptr %5, align 8
  %19 = load ptr, ptr %5, align 8
  %20 = call noundef i32 @_ZNK7QWidget6heightEv(ptr noundef nonnull align 8 dereferenceable(48) %9)
  %21 = sdiv i32 %20, 2
  %22 = call noundef i32 @_ZNK7QWidget6heightEv(ptr noundef nonnull align 8 dereferenceable(48) %9)
  %23 = sdiv i32 %22, 2
  call void @_ZN7QWidget12setFixedSizeEii(ptr noundef nonnull align 8 dereferenceable(48) %19, i32 noundef %21, i32 noundef %23)
  %24 = load ptr, ptr %5, align 8
  %25 = call noundef ptr @_ZN8QToolBar9addWidgetEP7QWidget(ptr noundef nonnull align 8 dereferenceable(48) %9, ptr noundef %24)
  %26 = load ptr, ptr %5, align 8
  %27 = getelementptr inbounds %class.MLRenderingToolbar, ptr %9, i32 0, i32 5
  %28 = call noundef nonnull align 8 dereferenceable(8) ptr @_ZN4QMapIP40MLRenderingUserDefinedGeneralColorActionP22MLRenderingColorPickerEixERKS1_(ptr noundef nonnull align 8 dereferenceable(8) %27, ptr noundef nonnull align 8 dereferenceable(8) %4)
  store ptr %26, ptr %28, align 8
  %29 = load ptr, ptr %5, align 8
  call void @_ZN7QObject7connectEPKS_PKcS1_S3_N2Qt14ConnectionTypeE(ptr dead_on_unwind writable sret(%"class.QMetaObject::Connection") align 8 %8, ptr noundef %29, ptr noundef @.str.5, ptr noundef %9, ptr noundef @.str.6, i32 noundef 0)
  call void @_ZN11QMetaObject10ConnectionD1Ev(ptr noundef nonnull align 8 dereferenceable(8) %8) #3
  br label %30

30:                                               ; preds = %18, %12
  ret void

31:                                               ; preds = %13
  %32 = landingpad { ptr, i32 }
          cleanup
  %33 = extractvalue { ptr, i32 } %32, 0
  store ptr %33, ptr %6, align 8
  %34 = extractvalue { ptr, i32 } %32, 1
  store i32 %34, ptr %7, align 4
  call void @_ZdlPv(ptr noundef %14) #16
  br label %35

35:                                               ; preds = %31
  %36 = load ptr, ptr %6, align 8
  %37 = load i32, ptr %7, align 4
  %38 = insertvalue { ptr, i32 } poison, ptr %36, 0
  %39 = insertvalue { ptr, i32 } %38, i32 %37, 1
  resume { ptr, i32 } %39
}