; Function Attrs: mustprogress uwtable
define void @_ZN18MLRenderingToolbar14addColorPickerEP40MLRenderingUserDefinedGeneralColorAction(ptr noundef nonnull align 8 dereferenceable(96) %0, ptr noundef %1) local_unnamed_addr #3 align 2 personality ptr @__gxx_personality_v0 {
  %3 = alloca ptr, align 8
  %4 = alloca %"class.QMetaObject::Connection", align 8
  store ptr %1, ptr %3, align 8
  %5 = icmp eq ptr %1, null
  br i1 %5, label %23, label %6

6:                                                ; preds = %2
  %7 = tail call noalias noundef nonnull dereferenceable(56) ptr @_Znwm(i64 noundef 56) #22
  %8 = getelementptr inbounds i8, ptr %0, i64 56
  %9 = load i32, ptr %8, align 8
  invoke void @_ZN22MLRenderingColorPickerC1EiP40MLRenderingUserDefinedGeneralColorActionP7QWidget(ptr noundef nonnull align 8 dereferenceable(56) %7, i32 noundef %9, ptr noundef nonnull %1, ptr noundef nonnull %0)
          to label %10 unwind label %24

10:                                               ; preds = %6
  %11 = getelementptr inbounds i8, ptr %0, i64 40
  %12 = load ptr, ptr %11, align 8
  %13 = getelementptr inbounds i8, ptr %12, i64 32
  %14 = load i32, ptr %13, align 4
  %15 = getelementptr inbounds i8, ptr %12, i64 24
  %16 = load i32, ptr %15, align 4
  %17 = add i32 %14, 1
  %18 = sub i32 %17, %16
  %19 = sdiv i32 %18, 2
  tail call void @_ZN7QWidget12setFixedSizeEii(ptr noundef nonnull align 8 dereferenceable(48) %7, i32 noundef %19, i32 noundef %19)
  %20 = tail call noundef ptr @_ZN8QToolBar9addWidgetEP7QWidget(ptr noundef nonnull align 8 dereferenceable(48) %0, ptr noundef nonnull %7)
  %21 = getelementptr inbounds i8, ptr %0, i64 80
  %22 = call noundef nonnull align 8 dereferenceable(8) ptr @_ZN4QMapIP40MLRenderingUserDefinedGeneralColorActionP22MLRenderingColorPickerEixERKS1_(ptr noundef nonnull align 8 dereferenceable(8) %21, ptr noundef nonnull align 8 dereferenceable(8) %3)
  store ptr %7, ptr %22, align 8
  call void @_ZN7QObject7connectEPKS_PKcS1_S3_N2Qt14ConnectionTypeE(ptr dead_on_unwind nonnull writable sret(%"class.QMetaObject::Connection") align 8 %4, ptr noundef nonnull %7, ptr noundef nonnull @.str.5, ptr noundef nonnull %0, ptr noundef nonnull @.str.6, i32 noundef 0)
  call void @_ZN11QMetaObject10ConnectionD1Ev(ptr noundef nonnull align 8 dereferenceable(8) %4) #23
  br label %23

23:                                               ; preds = %2, %10
  ret void

24:                                               ; preds = %6
  %25 = landingpad { ptr, i32 }
          cleanup
  tail call void @_ZdlPv(ptr noundef nonnull %7) #24
  resume { ptr, i32 } %25
}